; Function Attrs: nofree norecurse nosync nounwind memory(argmem: readwrite) uwtable
define void @x2rgb10tobgr64_bswap(ptr noundef readonly captures(none) %0, ptr noundef writeonly captures(none) %1, i32 noundef %2) local_unnamed_addr #0 {
  %4 = ashr i32 %2, 2
  %5 = icmp sgt i32 %4, 0
  br i1 %5, label %.lr.ph.preheader, label %._crit_edge

.lr.ph.preheader:                                 ; preds = %3
  %wide.trip.count = zext nneg i32 %4 to i64
  br label %.lr.ph

.lr.ph:                                           ; preds = %.lr.ph.preheader, %.lr.ph
  %indvars.iv = phi i64 [ 0, %.lr.ph.preheader ], [ %indvars.iv.next, %.lr.ph ]
  %6 = getelementptr inbounds nuw i32, ptr %0, i64 %indvars.iv
  %7 = load i32, ptr %6, align 1, !tbaa !8
  %8 = and i32 %7, 1023
  %9 = shl nuw nsw i32 %8, 6
  %10 = lshr i32 %8, 4
  %11 = or disjoint i32 %9, %10
  %12 = trunc nuw i32 %11 to i16
  %13 = tail call i16 @llvm.bswap.i16(i16 %12)
  %.idx = shl nsw i64 %indvars.iv, 3
  %14 = getelementptr inbounds nuw i8, ptr %1, i64 %.idx
  store i16 %13, ptr %14, align 2, !tbaa !16
  %15 = lshr i32 %7, 4
  %16 = and i32 %15, 65472
  %17 = lshr i32 %7, 14
  %18 = and i32 %17, 63
  %19 = or disjoint i32 %16, %18
  %20 = trunc nuw i32 %19 to i16
  %21 = tail call i16 @llvm.bswap.i16(i16 %20)
  %22 = getelementptr inbounds nuw i8, ptr %14, i64 2
  store i16 %21, ptr %22, align 2, !tbaa !16
  %23 = and i32 %17, 65472
  %24 = lshr i32 %7, 24
  %25 = and i32 %24, 63
  %26 = or disjoint i32 %23, %25
  %27 = trunc nuw i32 %26 to i16
  %28 = tail call i16 @llvm.bswap.i16(i16 %27)
  %29 = getelementptr inbounds nuw i8, ptr %14, i64 4
  store i16 %28, ptr %29, align 2, !tbaa !16
  %30 = getelementptr inbounds nuw i8, ptr %14, i64 6
  store i16 -1, ptr %30, align 2, !tbaa !16
  %indvars.iv.next = add nuw nsw i64 %indvars.iv, 1
  %exitcond.not = icmp eq i64 %indvars.iv.next, %wide.trip.count
  br i1 %exitcond.not, label %._crit_edge, label %.lr.ph, !llvm.loop !45

._crit_edge:                                      ; preds = %.lr.ph, %3
  ret void
}